target datalayout = "e-m:e-p270:32:32-p271:32:32-p272:64:64-i64:64-i128:128-f80:128-n8:16:32:64-S128"
target triple = "x86_64-pc-linux-gnu"

%struct.SDL_AtomicInt = type { i32 }
%struct.SDL_SensorDriver = type { ptr, ptr, ptr, ptr, ptr, ptr, ptr, ptr, ptr, ptr, ptr }
%struct.SDL_Sensor = type { i32, ptr, i32, i32, [16 x float], ptr, ptr, i32, i32, ptr }

@SDL_sensors_initialized = internal global i8 0, align 1
@SDL_sensor_lock_pending = internal global %struct.SDL_AtomicInt zeroinitializer, align 4
@SDL_sensor_lock = internal global ptr null, align 8
@SDL_sensors_locked = internal global i32 0, align 4
@SDL_sensor_drivers = internal global [1 x ptr] [ptr @SDL_DUMMY_SensorDriver], align 8
@SDL_sensors = internal global ptr null, align 8

; Function Attrs: nounwind uwtable
define hidden void @SDL_UnlockSensors() #0 {
  %1 = alloca i8, align 1
  %2 = alloca ptr, align 8
  call void @llvm.lifetime.start.p0(i64 1, ptr %1) #6
  store i8 0, ptr %1, align 1
  %3 = load i32, ptr @SDL_sensors_locked, align 4
  %4 = add nsw i32 %3, -1
  store i32 %4, ptr @SDL_sensors_locked, align 4
  %5 = load i8, ptr @SDL_sensors_initialized, align 1, !range !3, !noundef !4
  %6 = trunc i8 %5 to i1
  br i1 %6, label %15, label %7

7:                                                ; preds = %0
  %8 = load i32, ptr @SDL_sensors_locked, align 4
  %9 = icmp ne i32 %8, 0
  br i1 %9, label %14, label %10

10:                                               ; preds = %7
  %11 = call i32 @SDL_GetAtomicInt_REAL(ptr noundef @SDL_sensor_lock_pending)
  %12 = icmp eq i32 %11, 0
  br i1 %12, label %13, label %14

13:                                               ; preds = %10
  store i8 1, ptr %1, align 1
  br label %14

14:                                               ; preds = %13, %10, %7
  br label %15

15:                                               ; preds = %14, %0
  %16 = load i8, ptr %1, align 1, !range !3, !noundef !4
  %17 = trunc i8 %16 to i1
  br i1 %17, label %18, label %24

18:                                               ; preds = %15
  call void @llvm.lifetime.start.p0(i64 8, ptr %2) #6
  %19 = load ptr, ptr @SDL_sensor_lock, align 8
  store ptr %19, ptr %2, align 8
  %20 = load ptr, ptr %2, align 8
  call void @SDL_LockMutex_REAL(ptr noundef %20)
  %21 = load ptr, ptr @SDL_sensor_lock, align 8
  call void @SDL_UnlockMutex_REAL(ptr noundef %21)
  store ptr null, ptr @SDL_sensor_lock, align 8
  %22 = load ptr, ptr %2, align 8
  call void @SDL_UnlockMutex_REAL(ptr noundef %22)
  %23 = load ptr, ptr %2, align 8
  call void @SDL_DestroyMutex_REAL(ptr noundef %23)
  call void @llvm.lifetime.end.p0(i64 8, ptr %2) #6
  br label %26

24:                                               ; preds = %15
  %25 = load ptr, ptr @SDL_sensor_lock, align 8
  call void @SDL_UnlockMutex_REAL(ptr noundef %25)
  br label %26

26:                                               ; preds = %24, %18
  call void @llvm.lifetime.end.p0(i64 1, ptr %1) #6
  ret void
}

; Function Attrs: nounwind uwtable
define hidden void @SDL_LockSensors() #0 {
  %1 = call i32 @SDL_AddAtomicInt_REAL(ptr noundef @SDL_sensor_lock_pending, i32 noundef 1)
  %2 = load ptr, ptr @SDL_sensor_lock, align 8
  call void @SDL_LockMutex_REAL(ptr noundef %2)
  %3 = call i32 @SDL_AddAtomicInt_REAL(ptr noundef @SDL_sensor_lock_pending, i32 noundef -1)
  %4 = load i32, ptr @SDL_sensors_locked, align 4
  %5 = add nsw i32 %4, 1
  store i32 %5, ptr @SDL_sensors_locked, align 4
  ret void
}

; Function Attrs: nounwind uwtable
define hidden void @SDL_UpdateSensors_REAL() #0 {
  %1 = alloca i32, align 4
  %2 = alloca ptr, align 8
  %3 = alloca i32, align 4
  call void @llvm.lifetime.start.p0(i64 4, ptr %1) #6
  call void @llvm.lifetime.start.p0(i64 8, ptr %2) #6
  %4 = call i32 @SDL_WasInit_REAL(i32 noundef 32768)
  %5 = icmp ne i32 %4, 0
  br i1 %5, label %7, label %6

6:                                                ; preds = %0
  store i32 1, ptr %3, align 4
  br label %39

7:                                                ; preds = %0
  call void @SDL_LockSensors()
  %8 = load ptr, ptr @SDL_sensors, align 8
  store ptr %8, ptr %2, align 8
  br label %9

9:                                                ; preds = %19, %7
  %10 = load ptr, ptr %2, align 8
  %11 = icmp ne ptr %10, null
  br i1 %11, label %12, label %23

12:                                               ; preds = %9
  %13 = load ptr, ptr %2, align 8
  %14 = getelementptr inbounds nuw %struct.SDL_Sensor, ptr %13, i32 0, i32 5
  %15 = load ptr, ptr %14, align 8
  %16 = getelementptr inbounds nuw %struct.SDL_SensorDriver, ptr %15, i32 0, i32 8
  %17 = load ptr, ptr %16, align 8
  %18 = load ptr, ptr %2, align 8
  call void %17(ptr noundef %18)
  br label %19

19:                                               ; preds = %12
  %20 = load ptr, ptr %2, align 8
  %21 = getelementptr inbounds nuw %struct.SDL_Sensor, ptr %20, i32 0, i32 9
  %22 = load ptr, ptr %21, align 8
  store ptr %22, ptr %2, align 8
  br label %9, !llvm.loop !17

23:                                               ; preds = %9
  store i32 0, ptr %1, align 4
  br label %24

24:                                               ; preds = %35, %23
  %25 = load i32, ptr %1, align 4
  %26 = sext i32 %25 to i64
  %27 = icmp ult i64 %26, 1
  br i1 %27, label %28, label %38

28:                                               ; preds = %24
  %29 = load i32, ptr %1, align 4
  %30 = sext i32 %29 to i64
  %31 = getelementptr inbounds [1 x ptr], ptr @SDL_sensor_drivers, i64 0, i64 %30
  %32 = load ptr, ptr %31, align 8
  %33 = getelementptr inbounds nuw %struct.SDL_SensorDriver, ptr %32, i32 0, i32 2
  %34 = load ptr, ptr %33, align 8
  call void %34()
  br label %35

35:                                               ; preds = %28
  %36 = load i32, ptr %1, align 4
  %37 = add nsw i32 %36, 1
  store i32 %37, ptr %1, align 4
  br label %24, !llvm.loop !18

38:                                               ; preds = %24
  call void @SDL_UnlockSensors()
  store i32 0, ptr %3, align 4
  br label %39

39:                                               ; preds = %38, %6
  call void @llvm.lifetime.end.p0(i64 8, ptr %2) #6
  call void @llvm.lifetime.end.p0(i64 4, ptr %1) #6
  %40 = load i32, ptr %3, align 4
  switch i32 %40, label %42 [
    i32 0, label %41
    i32 1, label %41
  ]

41:                                               ; preds = %39, %39
  ret void

42:                                               ; preds = %39
  unreachable
}