; Function Attrs: nounwind uwtable
define hidden void @SDL_UpdateSensors_REAL() local_unnamed_addr #1 {
  %1 = tail call i32 @SDL_WasInit_REAL(i32 noundef 32768) #9
  %.not = icmp eq i32 %1, 0
  br i1 %.not, label %SDL_UnlockSensors.exit, label %2

2:                                                ; preds = %0
  %3 = tail call i32 @SDL_AddAtomicInt_REAL(ptr noundef nonnull @SDL_sensor_lock_pending, i32 noundef 1) #9
  %4 = load ptr, ptr @SDL_sensor_lock, align 8
  tail call void @SDL_LockMutex_REAL(ptr noundef %4) #9
  %5 = tail call i32 @SDL_AddAtomicInt_REAL(ptr noundef nonnull @SDL_sensor_lock_pending, i32 noundef -1) #9
  %6 = load i32, ptr @SDL_sensors_locked, align 4
  %7 = add nsw i32 %6, 1
  store i32 %7, ptr @SDL_sensors_locked, align 4
  %.09 = load ptr, ptr @SDL_sensors, align 8
  %.not810 = icmp eq ptr %.09, null
  br i1 %.not810, label %.critedge, label %.lr.ph

.lr.ph:                                           ; preds = %2, %.lr.ph
  %.011 = phi ptr [ %.0, %.lr.ph ], [ %.09, %2 ]
  %8 = getelementptr inbounds nuw i8, ptr %.011, i64 88
  %9 = load ptr, ptr %8, align 8
  %10 = getelementptr inbounds nuw i8, ptr %9, i64 64
  %11 = load ptr, ptr %10, align 8
  tail call void %11(ptr noundef nonnull %.011) #9
  %12 = getelementptr inbounds nuw i8, ptr %.011, i64 112
  %.0 = load ptr, ptr %12, align 8
  %.not8 = icmp eq ptr %.0, null
  br i1 %.not8, label %.critedge, label %.lr.ph, !llvm.loop !10

.critedge:                                        ; preds = %.lr.ph, %2
  %13 = load ptr, ptr getelementptr inbounds nuw (i8, ptr @SDL_DUMMY_SensorDriver, i64 16), align 8
  tail call void %13() #9
  %14 = load i32, ptr @SDL_sensors_locked, align 4
  %15 = add nsw i32 %14, -1
  store i32 %15, ptr @SDL_sensors_locked, align 4
  %.b4.i = load i1, ptr @SDL_sensors_initialized, align 1
  %16 = icmp ne i32 %15, 0
  %or.cond.i = select i1 %.b4.i, i1 true, i1 %16
  br i1 %or.cond.i, label %.critedge.i, label %17

17:                                               ; preds = %.critedge
  %18 = tail call i32 @SDL_GetAtomicInt_REAL(ptr noundef nonnull @SDL_sensor_lock_pending) #9
  %19 = icmp eq i32 %18, 0
  br i1 %19, label %20, label %.critedge.i

20:                                               ; preds = %17
  %21 = load ptr, ptr @SDL_sensor_lock, align 8
  tail call void @SDL_LockMutex_REAL(ptr noundef %21) #9
  %22 = load ptr, ptr @SDL_sensor_lock, align 8
  tail call void @SDL_UnlockMutex_REAL(ptr noundef %22) #9
  store ptr null, ptr @SDL_sensor_lock, align 8
  tail call void @SDL_UnlockMutex_REAL(ptr noundef %21) #9
  tail call void @SDL_DestroyMutex_REAL(ptr noundef %21) #9
  br label %SDL_UnlockSensors.exit

.critedge.i:                                      ; preds = %17, %.critedge
  %23 = load ptr, ptr @SDL_sensor_lock, align 8
  tail call void @SDL_UnlockMutex_REAL(ptr noundef %23) #9
  br label %SDL_UnlockSensors.exit

SDL_UnlockSensors.exit:                           ; preds = %.critedge.i, %20, %0
  ret void
}